target datalayout = "e-m:e-p270:32:32-p271:32:32-p272:64:64-i64:64-i128:128-f80:128-n8:16:32:64-S128"
target triple = "x86_64-pc-linux-gnu"

@hf_ipmi_se_evt_trigger_threshold = internal global i32 0, align 4
@.str.1022 = private unnamed_addr constant [15 x i8] c" (unspecified)\00", align 1

; Function Attrs: null_pointer_is_valid sspstrong uwtable
define internal zeroext i1 @eti_thr_3(ptr noundef %0, ptr noundef %1, ptr noundef %2, i32 noundef %3, i32 noundef %4, i32 noundef %5) #0 {
  %7 = alloca i1, align 1
  %8 = alloca ptr, align 8
  %9 = alloca ptr, align 8
  %10 = alloca ptr, align 8
  %11 = alloca i32, align 4
  %12 = alloca i32, align 4
  %13 = alloca i32, align 4
  %14 = alloca ptr, align 8
  %15 = alloca i32, align 4
  store ptr %0, ptr %8, align 8
  store ptr %1, ptr %9, align 8
  store ptr %2, ptr %10, align 8
  store i32 %3, ptr %11, align 4
  store i32 %4, ptr %12, align 4
  store i32 %5, ptr %13, align 4
  call void @llvm.lifetime.start.p0(i64 8, ptr %14) #5
  %16 = load i32, ptr %11, align 4
  %17 = icmp eq i32 %16, 1
  br i1 %17, label %18, label %28

18:                                               ; preds = %6
  %19 = load ptr, ptr %8, align 8
  %20 = load i32, ptr @hf_ipmi_se_evt_trigger_threshold, align 4
  %21 = load ptr, ptr %9, align 8
  %22 = call ptr @proto_tree_add_item(ptr noundef %19, i32 noundef %20, ptr noundef %21, i32 noundef 0, i32 noundef 1, i32 noundef -2147483648)
  store ptr %22, ptr %14, align 8
  %23 = load i32, ptr %13, align 4
  %24 = icmp eq i32 %23, 255
  br i1 %24, label %25, label %27

25:                                               ; preds = %18
  %26 = load ptr, ptr %14, align 8
  call void (ptr, ptr, ...) @proto_item_append_text(ptr noundef %26, ptr noundef @.str.1022)
  br label %27

27:                                               ; preds = %25, %18
  store i1 true, ptr %7, align 1
  store i32 1, ptr %15, align 4
  br label %29

28:                                               ; preds = %6
  store i1 false, ptr %7, align 1
  store i32 1, ptr %15, align 4
  br label %29

29:                                               ; preds = %28, %27
  call void @llvm.lifetime.end.p0(i64 8, ptr %14) #5
  %30 = load i1, ptr %7, align 1
  ret i1 %30
}